target datalayout = "e-m:e-p270:32:32-p271:32:32-p272:64:64-i64:64-i128:128-f80:128-n8:16:32:64-S128"
target triple = "x86_64-pc-linux-gnu"

@.str = private unnamed_addr constant [27 x i8] c"Usage: %s [ options ] ...\0A\00", align 1
@.str.1 = private unnamed_addr constant [10 x i8] c"Options:\0A\00", align 1
@.str.2 = private unnamed_addr constant [77 x i8] c"  -a                 Show all processes, including those that are not bound\0A\00", align 1
@.str.3 = private unnamed_addr constant [60 x i8] c"  --pid <pid>        Only show process of pid number <pid>\0A\00", align 1
@.str.4 = private unnamed_addr constant [82 x i8] c"  --children-of-pid <pid> Only show process of pid number <pid> and its children\0A\00", align 1
@.str.5 = private unnamed_addr constant [69 x i8] c"  --name <name>      Only show processes whose name contains <name>\0A\00", align 1
@.str.6 = private unnamed_addr constant [73 x i8] c"  --uid <uid>        Only show processes of the user with the given uid\0A\00", align 1
@.str.7 = private unnamed_addr constant [50 x i8] c"  --uid all          Show processes of all users\0A\00", align 1
@.str.8 = private unnamed_addr constant [59 x i8] c"  -l --logical       Use logical object indexes (default)\0A\00", align 1
@.str.9 = private unnamed_addr constant [50 x i8] c"  -p --physical      Use physical object indexes\0A\00", align 1
@.str.10 = private unnamed_addr constant [53 x i8] c"  -c --cpuset        Show cpuset instead of objects\0A\00", align 1
@.str.11 = private unnamed_addr constant [68 x i8] c"  --single-ancestor  Show a single ancestor containing the binding\0A\00", align 1
@.str.12 = private unnamed_addr constant [35 x i8] c"  -t --threads       Show threads\0A\00", align 1
@.str.13 = private unnamed_addr constant [30 x i8] c"  -e --get-last-cpu-location\0A\00", align 1
@.str.14 = private unnamed_addr constant [71 x i8] c"                     Retrieve the last processors where the tasks ran\0A\00", align 1
@.str.15 = private unnamed_addr constant [72 x i8] c"  --pid-cmd <cmd>    Append the output of <cmd> <pid> to each PID line\0A\00", align 1
@.str.16 = private unnamed_addr constant [75 x i8] c"  --short-name       Show only the process short name instead of the path\0A\00", align 1
@.str.17 = private unnamed_addr constant [79 x i8] c"  --disallowed       Include objects disallowed by administrative limitations\0A\00", align 1
@.str.18 = private unnamed_addr constant [85 x i8] c"  --lstopo-misc <file>  Output Misc object to be given to lstopo --misc-from <file>\0A\00", align 1
@.str.19 = private unnamed_addr constant [43 x i8] c"  --json-server      Run as a JSON server\0A\00", align 1
@.str.20 = private unnamed_addr constant [67 x i8] c"  --json-port <n>    Use port <n> for JSON server (default is %d)\0A\00", align 1
@.str.21 = private unnamed_addr constant [41 x i8] c"  -v --verbose       Increase verbosity\0A\00", align 1
@.str.22 = private unnamed_addr constant [46 x i8] c"  --version          Report version and exit\0A\00", align 1
@.str.23 = private unnamed_addr constant [38 x i8] c"  -h --help          Show this usage\0A\00", align 1

; Function Attrs: nounwind uwtable
define hidden void @usage(ptr noundef %0, ptr noundef %1) #0 {
  %3 = alloca ptr, align 8
  %4 = alloca ptr, align 8
  store ptr %0, ptr %3, align 8, !tbaa !4
  store ptr %1, ptr %4, align 8, !tbaa !9
  %5 = load ptr, ptr %4, align 8, !tbaa !9
  %6 = load ptr, ptr %3, align 8, !tbaa !4
  %7 = call i32 (ptr, ptr, ...) @fprintf(ptr noundef %5, ptr noundef @.str, ptr noundef %6) #9
  %8 = load ptr, ptr %4, align 8, !tbaa !9
  %9 = call i32 (ptr, ptr, ...) @fprintf(ptr noundef %8, ptr noundef @.str.1) #9
  %10 = load ptr, ptr %4, align 8, !tbaa !9
  %11 = call i32 (ptr, ptr, ...) @fprintf(ptr noundef %10, ptr noundef @.str.2) #9
  %12 = load ptr, ptr %4, align 8, !tbaa !9
  %13 = call i32 (ptr, ptr, ...) @fprintf(ptr noundef %12, ptr noundef @.str.3) #9
  %14 = load ptr, ptr %4, align 8, !tbaa !9
  %15 = call i32 (ptr, ptr, ...) @fprintf(ptr noundef %14, ptr noundef @.str.4) #9
  %16 = load ptr, ptr %4, align 8, !tbaa !9
  %17 = call i32 (ptr, ptr, ...) @fprintf(ptr noundef %16, ptr noundef @.str.5) #9
  %18 = load ptr, ptr %4, align 8, !tbaa !9
  %19 = call i32 (ptr, ptr, ...) @fprintf(ptr noundef %18, ptr noundef @.str.6) #9
  %20 = load ptr, ptr %4, align 8, !tbaa !9
  %21 = call i32 (ptr, ptr, ...) @fprintf(ptr noundef %20, ptr noundef @.str.7) #9
  %22 = load ptr, ptr %4, align 8, !tbaa !9
  %23 = call i32 (ptr, ptr, ...) @fprintf(ptr noundef %22, ptr noundef @.str.8) #9
  %24 = load ptr, ptr %4, align 8, !tbaa !9
  %25 = call i32 (ptr, ptr, ...) @fprintf(ptr noundef %24, ptr noundef @.str.9) #9
  %26 = load ptr, ptr %4, align 8, !tbaa !9
  %27 = call i32 (ptr, ptr, ...) @fprintf(ptr noundef %26, ptr noundef @.str.10) #9
  %28 = load ptr, ptr %4, align 8, !tbaa !9
  %29 = call i32 (ptr, ptr, ...) @fprintf(ptr noundef %28, ptr noundef @.str.11) #9
  %30 = load ptr, ptr %4, align 8, !tbaa !9
  %31 = call i32 (ptr, ptr, ...) @fprintf(ptr noundef %30, ptr noundef @.str.12) #9
  %32 = load ptr, ptr %4, align 8, !tbaa !9
  %33 = call i32 (ptr, ptr, ...) @fprintf(ptr noundef %32, ptr noundef @.str.13) #9
  %34 = load ptr, ptr %4, align 8, !tbaa !9
  %35 = call i32 (ptr, ptr, ...) @fprintf(ptr noundef %34, ptr noundef @.str.14) #9
  %36 = load ptr, ptr %4, align 8, !tbaa !9
  %37 = call i32 (ptr, ptr, ...) @fprintf(ptr noundef %36, ptr noundef @.str.15) #9
  %38 = load ptr, ptr %4, align 8, !tbaa !9
  %39 = call i32 (ptr, ptr, ...) @fprintf(ptr noundef %38, ptr noundef @.str.16) #9
  %40 = load ptr, ptr %4, align 8, !tbaa !9
  %41 = call i32 (ptr, ptr, ...) @fprintf(ptr noundef %40, ptr noundef @.str.17) #9
  %42 = load ptr, ptr %4, align 8, !tbaa !9
  %43 = call i32 (ptr, ptr, ...) @fprintf(ptr noundef %42, ptr noundef @.str.18) #9
  %44 = load ptr, ptr %4, align 8, !tbaa !9
  %45 = call i32 (ptr, ptr, ...) @fprintf(ptr noundef %44, ptr noundef @.str.19) #9
  %46 = load ptr, ptr %4, align 8, !tbaa !9
  %47 = call i32 (ptr, ptr, ...) @fprintf(ptr noundef %46, ptr noundef @.str.20, i32 noundef 8888) #9
  %48 = load ptr, ptr %4, align 8, !tbaa !9
  %49 = call i32 (ptr, ptr, ...) @fprintf(ptr noundef %48, ptr noundef @.str.21) #9
  %50 = load ptr, ptr %4, align 8, !tbaa !9
  %51 = call i32 (ptr, ptr, ...) @fprintf(ptr noundef %50, ptr noundef @.str.22) #9
  %52 = load ptr, ptr %4, align 8, !tbaa !9
  %53 = call i32 (ptr, ptr, ...) @fprintf(ptr noundef %52, ptr noundef @.str.23) #9
  ret void
}