; Function Attrs: nofree nounwind uwtable
define hidden void @usage(ptr noundef %0, ptr noundef captures(none) %1) local_unnamed_addr #0 {
  %3 = tail call i32 (ptr, ptr, ...) @fprintf(ptr noundef %1, ptr noundef nonnull @.str, ptr noundef %0) #16
  %4 = tail call i64 @fwrite(ptr nonnull @.str.1, i64 9, i64 1, ptr %1)
  %5 = tail call i64 @fwrite(ptr nonnull @.str.2, i64 76, i64 1, ptr %1)
  %6 = tail call i64 @fwrite(ptr nonnull @.str.3, i64 59, i64 1, ptr %1)
  %7 = tail call i64 @fwrite(ptr nonnull @.str.4, i64 81, i64 1, ptr %1)
  %8 = tail call i64 @fwrite(ptr nonnull @.str.5, i64 68, i64 1, ptr %1)
  %9 = tail call i64 @fwrite(ptr nonnull @.str.6, i64 72, i64 1, ptr %1)
  %10 = tail call i64 @fwrite(ptr nonnull @.str.7, i64 49, i64 1, ptr %1)
  %11 = tail call i64 @fwrite(ptr nonnull @.str.8, i64 58, i64 1, ptr %1)
  %12 = tail call i64 @fwrite(ptr nonnull @.str.9, i64 49, i64 1, ptr %1)
  %13 = tail call i64 @fwrite(ptr nonnull @.str.10, i64 52, i64 1, ptr %1)
  %14 = tail call i64 @fwrite(ptr nonnull @.str.11, i64 67, i64 1, ptr %1)
  %15 = tail call i64 @fwrite(ptr nonnull @.str.12, i64 34, i64 1, ptr %1)
  %16 = tail call i64 @fwrite(ptr nonnull @.str.13, i64 29, i64 1, ptr %1)
  %17 = tail call i64 @fwrite(ptr nonnull @.str.14, i64 70, i64 1, ptr %1)
  %18 = tail call i64 @fwrite(ptr nonnull @.str.15, i64 71, i64 1, ptr %1)
  %19 = tail call i64 @fwrite(ptr nonnull @.str.16, i64 74, i64 1, ptr %1)
  %20 = tail call i64 @fwrite(ptr nonnull @.str.17, i64 78, i64 1, ptr %1)
  %21 = tail call i64 @fwrite(ptr nonnull @.str.18, i64 84, i64 1, ptr %1)
  %22 = tail call i64 @fwrite(ptr nonnull @.str.19, i64 42, i64 1, ptr %1)
  %23 = tail call i32 (ptr, ptr, ...) @fprintf(ptr noundef %1, ptr noundef nonnull @.str.20, i32 noundef 8888) #16
  %24 = tail call i64 @fwrite(ptr nonnull @.str.21, i64 40, i64 1, ptr %1)
  %25 = tail call i64 @fwrite(ptr nonnull @.str.22, i64 45, i64 1, ptr %1)
  %26 = tail call i64 @fwrite(ptr nonnull @.str.23, i64 37, i64 1, ptr %1)
  ret void
}